; ModuleID = 'source-C-CXX/56/1589.c'
source_filename = "source-C-CXX/56/1589.c"
target datalayout = "e-m:e-p270:32:32-p271:32:32-p272:64:64-i64:64-f80:128-n8:16:32:64-S128"
target triple = "x86_64-pc-linux-gnu"

@.str = private unnamed_addr constant [3 x i8] c"%d\00", align 1
@.str.1 = private unnamed_addr constant [3 x i8] c"%s\00", align 1

; Function Attrs: nofree nounwind sspstrong uwtable
define dso_local i32 @main() local_unnamed_addr #0 {
  %1 = alloca [20 x i8], align 16
  %2 = getelementptr inbounds [20 x i8], [20 x i8]* %1, i64 0, i64 0
  %3 = alloca [20 x i8], align 16
  %4 = getelementptr inbounds [20 x i8], [20 x i8]* %3, i64 0, i64 0
  %5 = alloca i32, align 4
  %6 = getelementptr inbounds [20 x i8], [20 x i8]* %1, i64 0, i64 0
  call void @llvm.lifetime.start.p0i8(i64 20, i8* nonnull %6) #6
  %7 = getelementptr inbounds [20 x i8], [20 x i8]* %3, i64 0, i64 0
  call void @llvm.lifetime.start.p0i8(i64 20, i8* nonnull %7) #6
  %8 = bitcast i32* %5 to i8*
  call void @llvm.lifetime.start.p0i8(i64 4, i8* nonnull %8) #6
  %9 = call i32 (i8*, ...) @__isoc99_scanf(i8* getelementptr inbounds ([3 x i8], [3 x i8]* @.str, i64 0, i64 0), i32* nonnull %5)
  %10 = load i32, i32* %5, align 4, !tbaa !5
  %11 = icmp sgt i32 %10, 0
  br i1 %11, label %12, label %59

12:                                               ; preds = %0, %52
  %13 = phi i32 [ %56, %52 ], [ 0, %0 ]
  %14 = call i32 (i8*, ...) @__isoc99_scanf(i8* getelementptr inbounds ([3 x i8], [3 x i8]* @.str.1, i64 0, i64 0), i8* nonnull %6)
  %15 = call i64 @strlen(i8* noundef nonnull %6) #7
  %16 = trunc i64 %15 to i32
  %17 = add i32 %16, -3
  %18 = sext i32 %17 to i64
  %19 = getelementptr inbounds [20 x i8], [20 x i8]* %1, i64 0, i64 %18
  %20 = load i8, i8* %19, align 1, !tbaa !9
  %21 = icmp eq i8 %20, 105
  br i1 %21, label %22, label %45

22:                                               ; preds = %12
  %23 = shl i64 %15, 32
  %24 = add i64 %23, -8589934592
  %25 = ashr exact i64 %24, 32
  %26 = getelementptr inbounds [20 x i8], [20 x i8]* %1, i64 0, i64 %25
  %27 = load i8, i8* %26, align 1, !tbaa !9
  %28 = icmp eq i8 %27, 110
  br i1 %28, label %29, label %45

29:                                               ; preds = %22
  %30 = add i64 %23, -4294967296
  %31 = ashr exact i64 %30, 32
  %32 = getelementptr inbounds [20 x i8], [20 x i8]* %1, i64 0, i64 %31
  %33 = load i8, i8* %32, align 1, !tbaa !9
  %34 = icmp eq i8 %33, 103
  br i1 %34, label %35, label %45

35:                                               ; preds = %29
  %36 = icmp sgt i32 %16, 3
  br i1 %36, label %37, label %42

37:                                               ; preds = %35
  %38 = zext i32 %17 to i64
  call void @llvm.memcpy.p0i8.p0i8.i64(i8* nonnull align 16 %4, i8* nonnull align 16 %2, i64 %38, i1 false)
  %39 = add i64 %15, 4294967292
  %40 = and i64 %39, 4294967295
  %41 = add nuw nsw i64 %40, 1
  br label %42

42:                                               ; preds = %37, %35
  %43 = phi i64 [ 0, %35 ], [ %41, %37 ]
  %44 = and i64 %43, 4294967295
  br label %52

45:                                               ; preds = %29, %22, %12
  %46 = icmp sgt i32 %16, 2
  br i1 %46, label %47, label %52

47:                                               ; preds = %45
  %48 = add i64 %15, 4294967294
  %49 = and i64 %48, 4294967295
  call void @llvm.memcpy.p0i8.p0i8.i64(i8* nonnull align 16 %4, i8* nonnull align 16 %2, i64 %49, i1 false)
  %50 = zext i32 %17 to i64
  %51 = add nuw nsw i64 %50, 1
  br label %52

52:                                               ; preds = %45, %47, %42
  %53 = phi i64 [ %44, %42 ], [ 0, %45 ], [ %51, %47 ]
  %54 = getelementptr inbounds [20 x i8], [20 x i8]* %3, i64 0, i64 %53
  store i8 0, i8* %54, align 1, !tbaa !9
  %55 = call i32 @puts(i8* nonnull %7)
  %56 = add nuw nsw i32 %13, 1
  %57 = load i32, i32* %5, align 4, !tbaa !5
  %58 = icmp slt i32 %56, %57
  br i1 %58, label %12, label %59, !llvm.loop !10

59:                                               ; preds = %52, %0
  call void @llvm.lifetime.end.p0i8(i64 4, i8* nonnull %8) #6
  call void @llvm.lifetime.end.p0i8(i64 20, i8* nonnull %7) #6
  call void @llvm.lifetime.end.p0i8(i64 20, i8* nonnull %6) #6
  ret i32 0
}

; Function Attrs: argmemonly mustprogress nofree nosync nounwind willreturn
declare void @llvm.lifetime.start.p0i8(i64 immarg, i8* nocapture) #1

; Function Attrs: nofree nounwind
declare noundef i32 @__isoc99_scanf(i8* nocapture noundef readonly, ...) local_unnamed_addr #2

; Function Attrs: argmemonly mustprogress nofree nounwind readonly willreturn
declare i64 @strlen(i8* nocapture) local_unnamed_addr #3

; Function Attrs: argmemonly mustprogress nofree nosync nounwind willreturn
declare void @llvm.lifetime.end.p0i8(i64 immarg, i8* nocapture) #1

; Function Attrs: nofree nounwind
declare noundef i32 @puts(i8* nocapture noundef readonly) local_unnamed_addr #4

; Function Attrs: argmemonly nofree nounwind willreturn
declare void @llvm.memcpy.p0i8.p0i8.i64(i8* noalias nocapture writeonly, i8* noalias nocapture readonly, i64, i1 immarg) #5


!llvm.module.flags = !{!0, !1, !2, !3}
!llvm.ident = !{!4}

!0 = !{i32 1, !"wchar_size", i32 4}
!1 = !{i32 7, !"PIC Level", i32 2}
!2 = !{i32 7, !"PIE Level", i32 2}
!3 = !{i32 7, !"uwtable", i32 1}
!4 = !{!"clang version 13.0.0"}
!5 = !{!6, !6, i64 0}
!6 = !{!"int", !7, i64 0}
!7 = !{!"omnipotent char", !8, i64 0}
!8 = !{!"Simple C/C++ TBAA"}
!9 = !{!7, !7, i64 0}
!10 = distinct !{!10, !11}
!11 = !{!"llvm.loop.mustprogress"}
